target datalayout = "e-m:e-p270:32:32-p271:32:32-p272:64:64-i64:64-i128:128-f80:128-n8:16:32:64-S128"
target triple = "x86_64-pc-linux-gnu"

%struct._zval_struct = type { %union._zend_value, %union.anon, %union.anon.2 }
%union._zend_value = type { i64 }
%union.anon = type { i32 }
%union.anon.2 = type { i32 }
%struct._zend_refcounted_h = type { i32, %union.anon.3 }
%union.anon.3 = type { i32 }
%struct._Bucket = type { %struct._zval_struct, i64, ptr }
%struct._zend_string = type { %struct._zend_refcounted_h, i64, i64, [1 x i8] }

; Function Attrs: nounwind uwtable
define internal i32 @ini_key_compare(ptr noundef %0, ptr noundef %1) #0 {
  %3 = alloca i32, align 4
  %4 = alloca ptr, align 8
  %5 = alloca ptr, align 8
  store ptr %0, ptr %4, align 8
  store ptr %1, ptr %5, align 8
  %6 = load ptr, ptr %4, align 8
  %7 = getelementptr inbounds %struct._Bucket, ptr %6, i32 0, i32 2
  %8 = load ptr, ptr %7, align 8
  %9 = icmp ne ptr %8, null
  br i1 %9, label %35, label %10

10:                                               ; preds = %2
  %11 = load ptr, ptr %5, align 8
  %12 = getelementptr inbounds %struct._Bucket, ptr %11, i32 0, i32 2
  %13 = load ptr, ptr %12, align 8
  %14 = icmp ne ptr %13, null
  br i1 %14, label %35, label %15

15:                                               ; preds = %10
  %16 = load ptr, ptr %4, align 8
  %17 = getelementptr inbounds %struct._Bucket, ptr %16, i32 0, i32 1
  %18 = load i64, ptr %17, align 8
  %19 = load ptr, ptr %5, align 8
  %20 = getelementptr inbounds %struct._Bucket, ptr %19, i32 0, i32 1
  %21 = load i64, ptr %20, align 8
  %22 = icmp ugt i64 %18, %21
  br i1 %22, label %23, label %24

23:                                               ; preds = %15
  store i32 -1, ptr %3, align 4
  br label %69

24:                                               ; preds = %15
  %25 = load ptr, ptr %4, align 8
  %26 = getelementptr inbounds %struct._Bucket, ptr %25, i32 0, i32 1
  %27 = load i64, ptr %26, align 8
  %28 = load ptr, ptr %5, align 8
  %29 = getelementptr inbounds %struct._Bucket, ptr %28, i32 0, i32 1
  %30 = load i64, ptr %29, align 8
  %31 = icmp ult i64 %27, %30
  br i1 %31, label %32, label %33

32:                                               ; preds = %24
  store i32 1, ptr %3, align 4
  br label %69

33:                                               ; preds = %24
  br label %34

34:                                               ; preds = %33
  store i32 0, ptr %3, align 4
  br label %69

35:                                               ; preds = %10, %2
  %36 = load ptr, ptr %4, align 8
  %37 = getelementptr inbounds %struct._Bucket, ptr %36, i32 0, i32 2
  %38 = load ptr, ptr %37, align 8
  %39 = icmp ne ptr %38, null
  br i1 %39, label %41, label %40

40:                                               ; preds = %35
  store i32 -1, ptr %3, align 4
  br label %69

41:                                               ; preds = %35
  %42 = load ptr, ptr %5, align 8
  %43 = getelementptr inbounds %struct._Bucket, ptr %42, i32 0, i32 2
  %44 = load ptr, ptr %43, align 8
  %45 = icmp ne ptr %44, null
  br i1 %45, label %47, label %46

46:                                               ; preds = %41
  store i32 1, ptr %3, align 4
  br label %69

47:                                               ; preds = %41
  %48 = load ptr, ptr %4, align 8
  %49 = getelementptr inbounds %struct._Bucket, ptr %48, i32 0, i32 2
  %50 = load ptr, ptr %49, align 8
  %51 = getelementptr inbounds %struct._zend_string, ptr %50, i32 0, i32 3
  %52 = getelementptr inbounds [1 x i8], ptr %51, i64 0, i64 0
  %53 = load ptr, ptr %4, align 8
  %54 = getelementptr inbounds %struct._Bucket, ptr %53, i32 0, i32 2
  %55 = load ptr, ptr %54, align 8
  %56 = getelementptr inbounds %struct._zend_string, ptr %55, i32 0, i32 2
  %57 = load i64, ptr %56, align 8
  %58 = load ptr, ptr %5, align 8
  %59 = getelementptr inbounds %struct._Bucket, ptr %58, i32 0, i32 2
  %60 = load ptr, ptr %59, align 8
  %61 = getelementptr inbounds %struct._zend_string, ptr %60, i32 0, i32 3
  %62 = getelementptr inbounds [1 x i8], ptr %61, i64 0, i64 0
  %63 = load ptr, ptr %5, align 8
  %64 = getelementptr inbounds %struct._Bucket, ptr %63, i32 0, i32 2
  %65 = load ptr, ptr %64, align 8
  %66 = getelementptr inbounds %struct._zend_string, ptr %65, i32 0, i32 2
  %67 = load i64, ptr %66, align 8
  %68 = call i32 @zend_binary_strcasecmp(ptr noundef %52, i64 noundef %57, ptr noundef %62, i64 noundef %67)
  store i32 %68, ptr %3, align 4
  br label %69

69:                                               ; preds = %47, %46, %40, %34, %32, %23
  %70 = load i32, ptr %3, align 4
  ret i32 %70
}