; Function Attrs: nounwind uwtable
define internal i32 @ini_key_compare(ptr nocapture noundef readonly %0, ptr nocapture noundef readonly %1) #0 {
  %3 = getelementptr inbounds i8, ptr %0, i64 24
  %4 = load ptr, ptr %3, align 8
  %.not = icmp eq ptr %4, null
  %5 = getelementptr inbounds i8, ptr %1, i64 24
  %6 = load ptr, ptr %5, align 8
  %.not16 = icmp eq ptr %6, null
  br i1 %.not, label %7, label %16

7:                                                ; preds = %2
  br i1 %.not16, label %8, label %.thread

8:                                                ; preds = %7
  %9 = getelementptr inbounds i8, ptr %0, i64 16
  %10 = load i64, ptr %9, align 8
  %11 = getelementptr inbounds i8, ptr %1, i64 16
  %12 = load i64, ptr %11, align 8
  %13 = icmp ugt i64 %10, %12
  br i1 %13, label %.thread, label %14

14:                                               ; preds = %8
  %15 = icmp ult i64 %10, %12
  %. = zext i1 %15 to i32
  br label %.thread

16:                                               ; preds = %2
  br i1 %.not16, label %.thread, label %17

17:                                               ; preds = %16
  %18 = getelementptr inbounds i8, ptr %4, i64 24
  %19 = getelementptr inbounds i8, ptr %4, i64 16
  %20 = load i64, ptr %19, align 8
  %21 = getelementptr inbounds i8, ptr %6, i64 24
  %22 = getelementptr inbounds i8, ptr %6, i64 16
  %23 = load i64, ptr %22, align 8
  %24 = tail call i32 @zend_binary_strcasecmp(ptr noundef nonnull %18, i64 noundef %20, ptr noundef nonnull %21, i64 noundef %23) #20
  br label %.thread

.thread:                                          ; preds = %7, %16, %14, %8, %17
  %.0 = phi i32 [ %24, %17 ], [ -1, %8 ], [ %., %14 ], [ 1, %16 ], [ -1, %7 ]
  ret i32 %.0
}